target datalayout = "e-m:e-p270:32:32-p271:32:32-p272:64:64-i64:64-i128:128-f80:128-n8:16:32:64-S128"
target triple = "x86_64-pc-linux-gnu"

%struct.AVIOContext = type { ptr, ptr, i32, ptr, ptr, ptr, ptr, ptr, ptr, i64, i32, i32, i32, i32, i32, i64, ptr, ptr, ptr, ptr, i32, i32, ptr, ptr, ptr, i32, ptr, i64, i64 }

; Function Attrs: nounwind uwtable
define i64 @avio_skip(ptr noundef %0, i64 noundef %1) #0 {
  %3 = alloca ptr, align 8
  %4 = alloca i64, align 8
  store ptr %0, ptr %3, align 8, !tbaa !14
  store i64 %1, ptr %4, align 8, !tbaa !53
  %5 = load ptr, ptr %3, align 8, !tbaa !14
  %6 = load i64, ptr %4, align 8, !tbaa !53
  %7 = call i64 @avio_seek(ptr noundef %5, i64 noundef %6, i32 noundef 1)
  ret i64 %7
}

; Function Attrs: nounwind uwtable
define i32 @avio_feof(ptr noundef %0) #0 {
  %2 = alloca i32, align 4
  %3 = alloca ptr, align 8
  store ptr %0, ptr %3, align 8, !tbaa !14
  %4 = load ptr, ptr %3, align 8, !tbaa !14
  %5 = icmp ne ptr %4, null
  br i1 %5, label %7, label %6

6:                                                ; preds = %1
  store i32 0, ptr %2, align 4
  br label %20

7:                                                ; preds = %1
  %8 = load ptr, ptr %3, align 8, !tbaa !14
  %9 = getelementptr inbounds nuw %struct.AVIOContext, ptr %8, i32 0, i32 10
  %10 = load i32, ptr %9, align 8, !tbaa !31
  %11 = icmp ne i32 %10, 0
  br i1 %11, label %12, label %16

12:                                               ; preds = %7
  %13 = load ptr, ptr %3, align 8, !tbaa !14
  %14 = getelementptr inbounds nuw %struct.AVIOContext, ptr %13, i32 0, i32 10
  store i32 0, ptr %14, align 8, !tbaa !31
  %15 = load ptr, ptr %3, align 8, !tbaa !14
  call void @fill_buffer(ptr noundef %15)
  br label %16

16:                                               ; preds = %12, %7
  %17 = load ptr, ptr %3, align 8, !tbaa !14
  %18 = getelementptr inbounds nuw %struct.AVIOContext, ptr %17, i32 0, i32 10
  %19 = load i32, ptr %18, align 8, !tbaa !31
  store i32 %19, ptr %2, align 4
  br label %20

20:                                               ; preds = %16, %6
  %21 = load i32, ptr %2, align 4
  ret i32 %21
}

; Function Attrs: nounwind uwtable
define i32 @avio_r8(ptr noundef %0) #0 {
  %2 = alloca i32, align 4
  %3 = alloca ptr, align 8
  store ptr %0, ptr %3, align 8, !tbaa !14
  %4 = load ptr, ptr %3, align 8, !tbaa !14
  %5 = getelementptr inbounds nuw %struct.AVIOContext, ptr %4, i32 0, i32 3
  %6 = load ptr, ptr %5, align 8, !tbaa !23
  %7 = load ptr, ptr %3, align 8, !tbaa !14
  %8 = getelementptr inbounds nuw %struct.AVIOContext, ptr %7, i32 0, i32 4
  %9 = load ptr, ptr %8, align 8, !tbaa !38
  %10 = icmp uge ptr %6, %9
  br i1 %10, label %11, label %13

11:                                               ; preds = %1
  %12 = load ptr, ptr %3, align 8, !tbaa !14
  call void @fill_buffer(ptr noundef %12)
  br label %13

13:                                               ; preds = %11, %1
  %14 = load ptr, ptr %3, align 8, !tbaa !14
  %15 = getelementptr inbounds nuw %struct.AVIOContext, ptr %14, i32 0, i32 3
  %16 = load ptr, ptr %15, align 8, !tbaa !23
  %17 = load ptr, ptr %3, align 8, !tbaa !14
  %18 = getelementptr inbounds nuw %struct.AVIOContext, ptr %17, i32 0, i32 4
  %19 = load ptr, ptr %18, align 8, !tbaa !38
  %20 = icmp ult ptr %16, %19
  br i1 %20, label %21, label %28

21:                                               ; preds = %13
  %22 = load ptr, ptr %3, align 8, !tbaa !14
  %23 = getelementptr inbounds nuw %struct.AVIOContext, ptr %22, i32 0, i32 3
  %24 = load ptr, ptr %23, align 8, !tbaa !23
  %25 = getelementptr inbounds nuw i8, ptr %24, i32 1
  store ptr %25, ptr %23, align 8, !tbaa !23
  %26 = load i8, ptr %24, align 1, !tbaa !50
  %27 = zext i8 %26 to i32
  store i32 %27, ptr %2, align 4
  br label %29

28:                                               ; preds = %13
  store i32 0, ptr %2, align 4
  br label %29

29:                                               ; preds = %28, %21
  %30 = load i32, ptr %2, align 4
  ret i32 %30
}

; Function Attrs: nounwind uwtable
define i32 @ff_get_line(ptr noundef %0, ptr noundef %1, i32 noundef %2) #0 {
  %4 = alloca ptr, align 8
  %5 = alloca ptr, align 8
  %6 = alloca i32, align 4
  %7 = alloca i32, align 4
  %8 = alloca i8, align 1
  store ptr %0, ptr %4, align 8, !tbaa !14
  store ptr %1, ptr %5, align 8, !tbaa !9
  store i32 %2, ptr %6, align 4, !tbaa !11
  call void @llvm.lifetime.start.p0(i64 4, ptr %7) #12
  store i32 0, ptr %7, align 4, !tbaa !11
  call void @llvm.lifetime.start.p0(i64 1, ptr %8) #12
  br label %9

9:                                                ; preds = %41, %3
  %10 = load ptr, ptr %4, align 8, !tbaa !14
  %11 = call i32 @avio_r8(ptr noundef %10)
  %12 = trunc i32 %11 to i8
  store i8 %12, ptr %8, align 1, !tbaa !50
  %13 = load i8, ptr %8, align 1, !tbaa !50
  %14 = sext i8 %13 to i32
  %15 = icmp ne i32 %14, 0
  br i1 %15, label %16, label %28

16:                                               ; preds = %9
  %17 = load i32, ptr %7, align 4, !tbaa !11
  %18 = load i32, ptr %6, align 4, !tbaa !11
  %19 = sub nsw i32 %18, 1
  %20 = icmp slt i32 %17, %19
  br i1 %20, label %21, label %28

21:                                               ; preds = %16
  %22 = load i8, ptr %8, align 1, !tbaa !50
  %23 = load ptr, ptr %5, align 8, !tbaa !9
  %24 = load i32, ptr %7, align 4, !tbaa !11
  %25 = add nsw i32 %24, 1
  store i32 %25, ptr %7, align 4, !tbaa !11
  %26 = sext i32 %24 to i64
  %27 = getelementptr inbounds i8, ptr %23, i64 %26
  store i8 %22, ptr %27, align 1, !tbaa !50
  br label %28

28:                                               ; preds = %21, %16, %9
  br label %29

29:                                               ; preds = %28
  %30 = load i8, ptr %8, align 1, !tbaa !50
  %31 = sext i8 %30 to i32
  %32 = icmp ne i32 %31, 10
  br i1 %32, label %33, label %41

33:                                               ; preds = %29
  %34 = load i8, ptr %8, align 1, !tbaa !50
  %35 = sext i8 %34 to i32
  %36 = icmp ne i32 %35, 13
  br i1 %36, label %37, label %41

37:                                               ; preds = %33
  %38 = load i8, ptr %8, align 1, !tbaa !50
  %39 = sext i8 %38 to i32
  %40 = icmp ne i32 %39, 0
  br label %41

41:                                               ; preds = %37, %33, %29
  %42 = phi i1 [ false, %33 ], [ false, %29 ], [ %40, %37 ]
  br i1 %42, label %9, label %43, !llvm.loop !72

43:                                               ; preds = %41
  %44 = load i8, ptr %8, align 1, !tbaa !50
  %45 = sext i8 %44 to i32
  %46 = icmp eq i32 %45, 13
  br i1 %46, label %47, label %58

47:                                               ; preds = %43
  %48 = load ptr, ptr %4, align 8, !tbaa !14
  %49 = call i32 @avio_r8(ptr noundef %48)
  %50 = icmp ne i32 %49, 10
  br i1 %50, label %51, label %58

51:                                               ; preds = %47
  %52 = load ptr, ptr %4, align 8, !tbaa !14
  %53 = call i32 @avio_feof(ptr noundef %52)
  %54 = icmp ne i32 %53, 0
  br i1 %54, label %58, label %55

55:                                               ; preds = %51
  %56 = load ptr, ptr %4, align 8, !tbaa !14
  %57 = call i64 @avio_skip(ptr noundef %56, i64 noundef -1)
  br label %58

58:                                               ; preds = %55, %51, %47, %43
  %59 = load ptr, ptr %5, align 8, !tbaa !9
  %60 = load i32, ptr %7, align 4, !tbaa !11
  %61 = sext i32 %60 to i64
  %62 = getelementptr inbounds i8, ptr %59, i64 %61
  store i8 0, ptr %62, align 1, !tbaa !50
  %63 = load i32, ptr %7, align 4, !tbaa !11
  call void @llvm.lifetime.end.p0(i64 1, ptr %8) #12
  call void @llvm.lifetime.end.p0(i64 4, ptr %7) #12
  ret i32 %63
}