; Function Attrs: nounwind uwtable
define i32 @ff_get_line(ptr noundef %0, ptr noundef writeonly captures(none) %1, i32 noundef %2) local_unnamed_addr #3 {
  %4 = getelementptr inbounds nuw i8, ptr %0, i64 24
  %5 = getelementptr inbounds nuw i8, ptr %0, i64 32
  %6 = add nsw i32 %2, -1
  br label %7

7:                                                ; preds = %23, %3
  %.0 = phi i32 [ 0, %3 ], [ %.1, %23 ]
  %8 = load ptr, ptr %4, align 8, !tbaa !16
  %9 = load ptr, ptr %5, align 8, !tbaa !19
  %.not.i = icmp ult ptr %8, %9
  br i1 %.not.i, label %11, label %10

10:                                               ; preds = %7
  tail call fastcc void @fill_buffer(ptr noundef nonnull %0)
  %.pre.i = load ptr, ptr %4, align 8, !tbaa !16
  %.pre7.i = load ptr, ptr %5, align 8, !tbaa !19
  br label %11

11:                                               ; preds = %10, %7
  %12 = phi ptr [ %.pre7.i, %10 ], [ %9, %7 ]
  %13 = phi ptr [ %.pre.i, %10 ], [ %8, %7 ]
  %14 = icmp ult ptr %13, %12
  br i1 %14, label %avio_r8.exit, label %.thread

avio_r8.exit:                                     ; preds = %11
  %15 = getelementptr inbounds nuw i8, ptr %13, i64 1
  store ptr %15, ptr %4, align 8, !tbaa !16
  %16 = load i8, ptr %13, align 1, !tbaa !33
  %17 = icmp ne i8 %16, 0
  %18 = icmp slt i32 %.0, %6
  %or.cond23 = select i1 %17, i1 %18, i1 false
  br i1 %or.cond23, label %19, label %23

19:                                               ; preds = %avio_r8.exit
  %20 = add nsw i32 %.0, 1
  %21 = sext i32 %.0 to i64
  %22 = getelementptr inbounds i8, ptr %1, i64 %21
  store i8 %16, ptr %22, align 1, !tbaa !33
  br label %23

23:                                               ; preds = %avio_r8.exit, %19
  %.1 = phi i32 [ %20, %19 ], [ %.0, %avio_r8.exit ]
  switch i8 %16, label %7 [
    i8 13, label %24
    i8 0, label %.thread
    i8 10, label %.thread
  ]

24:                                               ; preds = %23
  %25 = load ptr, ptr %4, align 8, !tbaa !16
  %26 = load ptr, ptr %5, align 8, !tbaa !19
  %.not.i24 = icmp ult ptr %25, %26
  br i1 %.not.i24, label %28, label %27

27:                                               ; preds = %24
  tail call fastcc void @fill_buffer(ptr noundef nonnull %0)
  %.pre.i25 = load ptr, ptr %4, align 8, !tbaa !16
  %.pre7.i26 = load ptr, ptr %5, align 8, !tbaa !19
  br label %28

28:                                               ; preds = %27, %24
  %29 = phi ptr [ %.pre7.i26, %27 ], [ %26, %24 ]
  %30 = phi ptr [ %.pre.i25, %27 ], [ %25, %24 ]
  %31 = icmp ult ptr %30, %29
  br i1 %31, label %avio_r8.exit28, label %avio_r8.exit28.thread

avio_r8.exit28:                                   ; preds = %28
  %32 = getelementptr inbounds nuw i8, ptr %30, i64 1
  store ptr %32, ptr %4, align 8, !tbaa !16
  %33 = load i8, ptr %30, align 1, !tbaa !33
  %.not = icmp eq i8 %33, 10
  br i1 %.not, label %.thread, label %avio_r8.exit28.thread

avio_r8.exit28.thread:                            ; preds = %28, %avio_r8.exit28
  %34 = getelementptr inbounds nuw i8, ptr %0, i64 80
  %35 = load i32, ptr %34, align 8, !tbaa !46
  %.not6.i = icmp eq i32 %35, 0
  br i1 %.not6.i, label %avio_feof.exit.thread, label %avio_feof.exit

avio_feof.exit:                                   ; preds = %avio_r8.exit28.thread
  store i32 0, ptr %34, align 8, !tbaa !46
  tail call fastcc void @fill_buffer(ptr noundef nonnull %0)
  %.pre.i30 = load i32, ptr %34, align 8, !tbaa !46
  %.not21 = icmp eq i32 %.pre.i30, 0
  br i1 %.not21, label %avio_feof.exit.thread, label %.thread

avio_feof.exit.thread:                            ; preds = %avio_r8.exit28.thread, %avio_feof.exit
  %36 = tail call i64 @avio_seek(ptr noundef nonnull %0, i64 noundef -1, i32 noundef 1)
  br label %.thread

.thread:                                          ; preds = %11, %23, %23, %avio_feof.exit.thread, %avio_feof.exit, %avio_r8.exit28
  %.138 = phi i32 [ %.1, %avio_feof.exit.thread ], [ %.1, %avio_feof.exit ], [ %.1, %avio_r8.exit28 ], [ %.0, %11 ], [ %.1, %23 ], [ %.1, %23 ]
  %37 = sext i32 %.138 to i64
  %38 = getelementptr inbounds i8, ptr %1, i64 %37
  store i8 0, ptr %38, align 1, !tbaa !33
  ret i32 %.138
}